; ModuleID = '44/400.c'
source_filename = "44/400.c"
target datalayout = "e-m:e-p270:32:32-p271:32:32-p272:64:64-i64:64-f80:128-n8:16:32:64-S128"
target triple = "x86_64-pc-linux-gnu"

@.str = private unnamed_addr constant [3 x i8] c"%d\00", align 1
@.str.1 = private unnamed_addr constant [2 x i8] c"-\00", align 1
@.str.2 = private unnamed_addr constant [3 x i8] c"0\0A\00", align 1
@.str.3 = private unnamed_addr constant [2 x i8] c"\0A\00", align 1

; Function Attrs: noinline nounwind uwtable
define dso_local i32 @main() #0 {
  %1 = alloca i32, align 4
  %2 = alloca i32, align 4
  %3 = alloca i32, align 4
  store i32 0, i32* %1, align 4
  store i32 0, i32* %2, align 4
  br label %4

4:                                                ; preds = %11, %0
  %5 = load i32, i32* %2, align 4
  %6 = icmp sle i32 %5, 5
  br i1 %6, label %7, label %14

7:                                                ; preds = %4
  %8 = call i32 (i8*, ...) @__isoc99_scanf(i8* getelementptr inbounds ([3 x i8], [3 x i8]* @.str, i64 0, i64 0), i32* %3)
  %9 = load i32, i32* %3, align 4
  %10 = call i32 @reverse(i32 %9)
  store i32 %10, i32* %3, align 4
  br label %11

11:                                               ; preds = %7
  %12 = load i32, i32* %2, align 4
  %13 = add nsw i32 %12, 1
  store i32 %13, i32* %2, align 4
  br label %4

14:                                               ; preds = %4
  ret i32 0
}

declare dso_local i32 @__isoc99_scanf(i8*, ...) #1

; Function Attrs: noinline nounwind uwtable
define dso_local i32 @reverse(i32 %0) #0 {
  %2 = alloca i32, align 4
  %3 = alloca i32, align 4
  %4 = alloca i32, align 4
  %5 = alloca i32, align 4
  %6 = alloca [10 x i32], align 16
  %7 = alloca i32, align 4
  store i32 %0, i32* %3, align 4
  store i32 1, i32* %5, align 4
  %8 = load i32, i32* %3, align 4
  %9 = icmp slt i32 %8, 0
  br i1 %9, label %10, label %14

10:                                               ; preds = %1
  %11 = load i32, i32* %3, align 4
  %12 = sub nsw i32 0, %11
  store i32 %12, i32* %3, align 4
  %13 = call i32 (i8*, ...) @printf(i8* getelementptr inbounds ([2 x i8], [2 x i8]* @.str.1, i64 0, i64 0))
  br label %14

14:                                               ; preds = %10, %1
  %15 = load i32, i32* %3, align 4
  %16 = icmp eq i32 %15, 0
  br i1 %16, label %17, label %19

17:                                               ; preds = %14
  %18 = call i32 (i8*, ...) @printf(i8* getelementptr inbounds ([3 x i8], [3 x i8]* @.str.2, i64 0, i64 0))
  store i32 0, i32* %2, align 4
  br label %114

19:                                               ; preds = %14
  store i32 0, i32* %4, align 4
  br label %20

20:                                               ; preds = %32, %19
  %21 = load i32, i32* %4, align 4
  %22 = icmp sle i32 %21, 9
  br i1 %22, label %23, label %35

23:                                               ; preds = %20
  %24 = load i32, i32* %3, align 4
  %25 = load i32, i32* %5, align 4
  %26 = sdiv i32 %24, %25
  %27 = load i32, i32* %4, align 4
  %28 = sext i32 %27 to i64
  %29 = getelementptr inbounds [10 x i32], [10 x i32]* %6, i64 0, i64 %28
  store i32 %26, i32* %29, align 4
  %30 = load i32, i32* %5, align 4
  %31 = mul nsw i32 %30, 10
  store i32 %31, i32* %5, align 4
  br label %32

32:                                               ; preds = %23
  %33 = load i32, i32* %4, align 4
  %34 = add nsw i32 %33, 1
  store i32 %34, i32* %4, align 4
  br label %20

35:                                               ; preds = %20
  store i32 0, i32* %4, align 4
  br label %36

36:                                               ; preds = %55, %35
  %37 = load i32, i32* %4, align 4
  %38 = icmp sle i32 %37, 9
  br i1 %38, label %39, label %58

39:                                               ; preds = %36
  %40 = load i32, i32* %4, align 4
  %41 = sext i32 %40 to i64
  %42 = getelementptr inbounds [10 x i32], [10 x i32]* %6, i64 0, i64 %41
  %43 = load i32, i32* %42, align 4
  %44 = sdiv i32 %43, 10
  store i32 %44, i32* %5, align 4
  %45 = load i32, i32* %4, align 4
  %46 = sext i32 %45 to i64
  %47 = getelementptr inbounds [10 x i32], [10 x i32]* %6, i64 0, i64 %46
  %48 = load i32, i32* %47, align 4
  %49 = load i32, i32* %5, align 4
  %50 = mul nsw i32 %49, 10
  %51 = sub nsw i32 %48, %50
  %52 = load i32, i32* %4, align 4
  %53 = sext i32 %52 to i64
  %54 = getelementptr inbounds [10 x i32], [10 x i32]* %6, i64 0, i64 %53
  store i32 %51, i32* %54, align 4
  br label %55

55:                                               ; preds = %39
  %56 = load i32, i32* %4, align 4
  %57 = add nsw i32 %56, 1
  store i32 %57, i32* %4, align 4
  br label %36

58:                                               ; preds = %36
  store i32 0, i32* %5, align 4
  store i32 9, i32* %4, align 4
  br label %59

59:                                               ; preds = %76, %58
  %60 = load i32, i32* %4, align 4
  %61 = icmp sge i32 %60, 0
  br i1 %61, label %62, label %79

62:                                               ; preds = %59
  %63 = load i32, i32* %4, align 4
  %64 = sub nsw i32 %63, 1
  %65 = sext i32 %64 to i64
  %66 = getelementptr inbounds [10 x i32], [10 x i32]* %6, i64 0, i64 %65
  %67 = load i32, i32* %66, align 4
  %68 = icmp ne i32 %67, 0
  br i1 %68, label %69, label %75

69:                                               ; preds = %62
  %70 = load i32, i32* %5, align 4
  %71 = icmp eq i32 %70, 0
  br i1 %71, label %72, label %75

72:                                               ; preds = %69
  %73 = load i32, i32* %4, align 4
  %74 = sub nsw i32 %73, 1
  store i32 %74, i32* %7, align 4
  store i32 1, i32* %5, align 4
  br label %76

75:                                               ; preds = %69, %62
  br label %76

76:                                               ; preds = %75, %72
  %77 = load i32, i32* %4, align 4
  %78 = add nsw i32 %77, -1
  store i32 %78, i32* %4, align 4
  br label %59

79:                                               ; preds = %59
  store i32 0, i32* %5, align 4
  store i32 0, i32* %4, align 4
  br label %80

80:                                               ; preds = %109, %79
  %81 = load i32, i32* %4, align 4
  %82 = load i32, i32* %7, align 4
  %83 = icmp sle i32 %81, %82
  br i1 %83, label %84, label %112

84:                                               ; preds = %80
  %85 = load i32, i32* %4, align 4
  %86 = sext i32 %85 to i64
  %87 = getelementptr inbounds [10 x i32], [10 x i32]* %6, i64 0, i64 %86
  %88 = load i32, i32* %87, align 4
  %89 = icmp ne i32 %88, 0
  br i1 %89, label %90, label %99

90:                                               ; preds = %84
  %91 = load i32, i32* %5, align 4
  %92 = icmp eq i32 %91, 0
  br i1 %92, label %93, label %99

93:                                               ; preds = %90
  store i32 1, i32* %5, align 4
  %94 = load i32, i32* %4, align 4
  %95 = sext i32 %94 to i64
  %96 = getelementptr inbounds [10 x i32], [10 x i32]* %6, i64 0, i64 %95
  %97 = load i32, i32* %96, align 4
  %98 = call i32 (i8*, ...) @printf(i8* getelementptr inbounds ([3 x i8], [3 x i8]* @.str, i64 0, i64 0), i32 %97)
  br label %109

99:                                               ; preds = %90, %84
  %100 = load i32, i32* %5, align 4
  %101 = icmp eq i32 %100, 1
  br i1 %101, label %102, label %108

102:                                              ; preds = %99
  %103 = load i32, i32* %4, align 4
  %104 = sext i32 %103 to i64
  %105 = getelementptr inbounds [10 x i32], [10 x i32]* %6, i64 0, i64 %104
  %106 = load i32, i32* %105, align 4
  %107 = call i32 (i8*, ...) @printf(i8* getelementptr inbounds ([3 x i8], [3 x i8]* @.str, i64 0, i64 0), i32 %106)
  br label %108

108:                                              ; preds = %102, %99
  br label %109

109:                                              ; preds = %108, %93
  %110 = load i32, i32* %4, align 4
  %111 = add nsw i32 %110, 1
  store i32 %111, i32* %4, align 4
  br label %80

112:                                              ; preds = %80
  %113 = call i32 (i8*, ...) @printf(i8* getelementptr inbounds ([2 x i8], [2 x i8]* @.str.3, i64 0, i64 0))
  store i32 0, i32* %2, align 4
  br label %114

114:                                              ; preds = %112, %17
  %115 = load i32, i32* %2, align 4
  ret i32 %115
}

declare dso_local i32 @printf(i8*, ...) #1


!llvm.module.flags = !{!0}
!llvm.ident = !{!1}

!0 = !{i32 1, !"wchar_size", i32 4}
!1 = !{!"clang version 10.0.0-4ubuntu1 "}
